; ModuleID = 'source-C-CXX/49/1098.c'
source_filename = "source-C-CXX/49/1098.c"
target datalayout = "e-m:e-p270:32:32-p271:32:32-p272:64:64-i64:64-f80:128-n8:16:32:64-S128"
target triple = "x86_64-pc-linux-gnu"

@.str = private unnamed_addr constant [3 x i8] c"%d\00", align 1
@.str.1 = private unnamed_addr constant [4 x i8] c"%d\0A\00", align 1

; Function Attrs: nofree nounwind sspstrong uwtable
define dso_local void @main() local_unnamed_addr #0 {
  %1 = alloca i32, align 4
  %2 = bitcast i32* %1 to i8*
  call void @llvm.lifetime.start.p0i8(i64 4, i8* nonnull %2) #3
  %3 = call i32 (i8*, ...) @__isoc99_scanf(i8* getelementptr inbounds ([3 x i8], [3 x i8]* @.str, i64 0, i64 0), i32* nonnull %1)
  %4 = load i32, i32* %1, align 4, !tbaa !5
  %5 = add nsw i32 %4, 12
  %6 = add nsw i32 %4, 43
  %7 = add nsw i32 %4, 71
  %8 = add nsw i32 %4, 102
  %9 = add nsw i32 %4, 132
  %10 = add nsw i32 %4, 163
  %11 = add nsw i32 %4, 193
  %12 = add nsw i32 %4, 224
  %13 = add nsw i32 %4, 255
  %14 = add nsw i32 %4, 285
  %15 = add nsw i32 %4, 316
  %16 = add nsw i32 %4, 346
  %17 = srem i32 %16, 7
  %18 = srem i32 %5, 7
  %19 = icmp eq i32 %18, 5
  br i1 %19, label %20, label %22

20:                                               ; preds = %0
  %21 = call i32 (i8*, ...) @printf(i8* nonnull dereferenceable(1) getelementptr inbounds ([4 x i8], [4 x i8]* @.str.1, i64 0, i64 0), i32 1)
  br label %22

22:                                               ; preds = %0, %20
  %23 = srem i32 %6, 7
  %24 = icmp eq i32 %23, 5
  br i1 %24, label %25, label %27

25:                                               ; preds = %22
  %26 = call i32 (i8*, ...) @printf(i8* nonnull dereferenceable(1) getelementptr inbounds ([4 x i8], [4 x i8]* @.str.1, i64 0, i64 0), i32 2)
  br label %27

27:                                               ; preds = %25, %22
  %28 = srem i32 %7, 7
  %29 = icmp eq i32 %28, 5
  br i1 %29, label %30, label %32

30:                                               ; preds = %27
  %31 = call i32 (i8*, ...) @printf(i8* nonnull dereferenceable(1) getelementptr inbounds ([4 x i8], [4 x i8]* @.str.1, i64 0, i64 0), i32 3)
  br label %32

32:                                               ; preds = %30, %27
  %33 = srem i32 %8, 7
  %34 = icmp eq i32 %33, 5
  br i1 %34, label %35, label %37

35:                                               ; preds = %32
  %36 = call i32 (i8*, ...) @printf(i8* nonnull dereferenceable(1) getelementptr inbounds ([4 x i8], [4 x i8]* @.str.1, i64 0, i64 0), i32 4)
  br label %37

37:                                               ; preds = %35, %32
  %38 = srem i32 %9, 7
  %39 = icmp eq i32 %38, 5
  br i1 %39, label %40, label %42

40:                                               ; preds = %37
  %41 = call i32 (i8*, ...) @printf(i8* nonnull dereferenceable(1) getelementptr inbounds ([4 x i8], [4 x i8]* @.str.1, i64 0, i64 0), i32 5)
  br label %42

42:                                               ; preds = %40, %37
  %43 = srem i32 %10, 7
  %44 = icmp eq i32 %43, 5
  br i1 %44, label %45, label %47

45:                                               ; preds = %42
  %46 = call i32 (i8*, ...) @printf(i8* nonnull dereferenceable(1) getelementptr inbounds ([4 x i8], [4 x i8]* @.str.1, i64 0, i64 0), i32 6)
  br label %47

47:                                               ; preds = %45, %42
  %48 = srem i32 %11, 7
  %49 = icmp eq i32 %48, 5
  br i1 %49, label %50, label %52

50:                                               ; preds = %47
  %51 = call i32 (i8*, ...) @printf(i8* nonnull dereferenceable(1) getelementptr inbounds ([4 x i8], [4 x i8]* @.str.1, i64 0, i64 0), i32 7)
  br label %52

52:                                               ; preds = %50, %47
  %53 = srem i32 %12, 7
  %54 = icmp eq i32 %53, 5
  br i1 %54, label %55, label %57

55:                                               ; preds = %52
  %56 = call i32 (i8*, ...) @printf(i8* nonnull dereferenceable(1) getelementptr inbounds ([4 x i8], [4 x i8]* @.str.1, i64 0, i64 0), i32 8)
  br label %57

57:                                               ; preds = %55, %52
  %58 = srem i32 %13, 7
  %59 = icmp eq i32 %58, 5
  br i1 %59, label %60, label %62

60:                                               ; preds = %57
  %61 = call i32 (i8*, ...) @printf(i8* nonnull dereferenceable(1) getelementptr inbounds ([4 x i8], [4 x i8]* @.str.1, i64 0, i64 0), i32 9)
  br label %62

62:                                               ; preds = %60, %57
  %63 = srem i32 %14, 7
  %64 = icmp eq i32 %63, 5
  br i1 %64, label %65, label %67

65:                                               ; preds = %62
  %66 = call i32 (i8*, ...) @printf(i8* nonnull dereferenceable(1) getelementptr inbounds ([4 x i8], [4 x i8]* @.str.1, i64 0, i64 0), i32 10)
  br label %67

67:                                               ; preds = %65, %62
  %68 = srem i32 %15, 7
  %69 = icmp eq i32 %68, 5
  br i1 %69, label %70, label %72

70:                                               ; preds = %67
  %71 = call i32 (i8*, ...) @printf(i8* nonnull dereferenceable(1) getelementptr inbounds ([4 x i8], [4 x i8]* @.str.1, i64 0, i64 0), i32 11)
  br label %72

72:                                               ; preds = %70, %67
  %73 = icmp eq i32 %17, 5
  br i1 %73, label %74, label %76

74:                                               ; preds = %72
  %75 = call i32 (i8*, ...) @printf(i8* nonnull dereferenceable(1) getelementptr inbounds ([4 x i8], [4 x i8]* @.str.1, i64 0, i64 0), i32 12)
  br label %76

76:                                               ; preds = %74, %72
  call void @llvm.lifetime.end.p0i8(i64 4, i8* nonnull %2) #3
  ret void
}

; Function Attrs: argmemonly mustprogress nofree nosync nounwind willreturn
declare void @llvm.lifetime.start.p0i8(i64 immarg, i8* nocapture) #1

; Function Attrs: nofree nounwind
declare noundef i32 @__isoc99_scanf(i8* nocapture noundef readonly, ...) local_unnamed_addr #2

; Function Attrs: nofree nounwind
declare noundef i32 @printf(i8* nocapture noundef readonly, ...) local_unnamed_addr #2

; Function Attrs: argmemonly mustprogress nofree nosync nounwind willreturn
declare void @llvm.lifetime.end.p0i8(i64 immarg, i8* nocapture) #1


!llvm.module.flags = !{!0, !1, !2, !3}
!llvm.ident = !{!4}

!0 = !{i32 1, !"wchar_size", i32 4}
!1 = !{i32 7, !"PIC Level", i32 2}
!2 = !{i32 7, !"PIE Level", i32 2}
!3 = !{i32 7, !"uwtable", i32 1}
!4 = !{!"clang version 13.0.0"}
!5 = !{!6, !6, i64 0}
!6 = !{!"int", !7, i64 0}
!7 = !{!"omnipotent char", !8, i64 0}
!8 = !{!"Simple C/C++ TBAA"}
